(dp1
S'\x83'
I24
sS'\x87'
I23
sS'\x8f'
I18
sS'\x93'
I61
sS'\x97'
I70
sS'\x9b'
I93
sS'\x9f'
I37
sS'\xa3'
I106
sS'\xa7'
I116
sS'('
I36
sS'\xab'
I144
sS','
I21
sS'\xaf'
I127
sS'0'
I40
sS'\xb3'
I22
sS'4'
I84
sS'\xb7'
I16
sS'8'
I85
sS'\xbb'
I15
sS'\xbf'
I13
sS'\xc3'
I71
sS'D'
I96
sS'H'
I118
sS'L'
I90
sS'\xcf'
I77
sS'P'
I91
sS'T'
I104
sS'X'
I138
sS'd'
I59
sS'h'
I62
sS'l'
I53
sS'p'
I64
sS't'
I47
sS'x'
I135
sS'\x80'
I9
sS'\x84'
I34
sS'\x88'
I31
sS'\x8c'
I119
sS'\x90'
I81
sS'\x94'
I60
sS'\x98'
I63
sS'\x9c'
I79
sS'\xa0'
I65
sS'\xa4'
I113
sS"'"
I133
sS'\xa8'
I108
sS'+'
I145
sS'\xac'
I146
sS'/'
I101
sS'\xb0'
I3
sS'3'
I75
sS'\xb4'
I12
sS'7'
I87
sS'\xb8'
I5
sS';'
I111
sS'\xbc'
I17
sS'?'
I98
sS'C'
I86
sS'\xc4'
I132
sS'G'
I110
sS'K'
I123
sS'O'
I128
sS'\xd0'
I1
sS'S'
I89
sS'W'
I122
sS'['
I142
sS'c'
I67
sS'g'
I80
sS'k'
I97
sS'o'
I44
sS's'
I45
sS'w'
I103
sS'\x81'
I10
sS'\x85'
I30
sS'\x89'
I28
sS'\x8d'
I140
sS'\x91'
I72
sS'\x95'
I38
sS'\x99'
I134
sS'\x9d'
I58
sS'\xa1'
I42
sS'"'
I66
sS'\xa5'
I125
sS'\xa9'
I88
sS'*'
I147
sS'\xad'
I139
sS'.'
I25
sS'\xb1'
I20
sS'2'
I52
sS'\xb5'
I6
sS'6'
I83
sS'\xb9'
I29
sS':'
I46
sS'\xbd'
I8
sS'B'
I94
sS'\xc5'
I129
sS'F'
I121
sS'J'
I112
sS'N'
I99
sS'\xd1'
I2
sS'R'
I74
sS'V'
I120
sS'Z'
I141
sS'b'
I109
sS'f'
I95
sS'j'
I130
sS'n'
I48
sS'r'
I39
sS'v'
I100
sS'z'
I82
sS'\x82'
I7
sS'\x86'
I27
sS'\x8a'
I19
sS'\x8e'
I43
sS'\x92'
I54
sS'\x96'
I126
sS'\x9a'
I50
sS'\x9e'
I55
sS'!'
I136
sS'\xa2'
I56
sS'%'
I117
sS'\xa6'
I115
sS')'
I41
sS'\xaa'
I148
sS'-'
I33
sS'\xae'
I131
sS'1'
I51
sS'\xb2'
I11
sS'5'
I69
sS'\xb6'
I26
sS'9'
I76
sS'\xba'
I14
sS'\xbe'
I4
sS'A'
I107
sS'\xc2'
I149
sS'E'
I78
sS'I'
I102
sS'M'
I92
sS'\xce'
I68
sS'Q'
I150
sS'U'
I114
sS']'
I143
sS'a'
I35
sS'\xe2'
I124
sS'e'
I32
sS'i'
I49
sS'm'
I73
sS'q'
I137
sS'u'
I57
sS'y'
I105
s.