(dp1
S'\x83'
I98
sS'\x87'
I116
sS'\x8f'
I81
sS'\x93'
I123
sS'\x9b'
I28
sS'\x9f'
I105
sS'\xa3'
I114
sS'\xa7'
I124
sS'('
I44
sS','
I27
sS'\xaf'
I35
sS'0'
I41
sS'\xb3'
I80
sS'4'
I74
sS'\xb7'
I100
sS'8'
I78
sS'\xbb'
I125
sS'\xc3'
I2
sS'D'
I57
sS'H'
I76
sS'L'
I65
sS'\xcf'
I92
sS'P'
I38
sS'T'
I50
sS'd'
I15
sS'h'
I21
sS'l'
I13
sS'p'
I12
sS't'
I6
sS'x'
I60
sS'\x80'
I115
sS'\x84'
I110
sS'\x88'
I52
sS'\x8c'
I82
sS'\x98'
I84
sS'\xa0'
I89
sS'\xa4'
I108
sS"'"
I101
sS'\xa8'
I94
sS'+'
I111
sS'/'
I85
sS'3'
I70
sS'\xb4'
I112
sS'7'
I71
sS'\xb8'
I126
sS';'
I87
sS'\xbc'
I96
sS'?'
I69
sS'C'
I66
sS'\xc4'
I22
sS'G'
I79
sS'K'
I48
sS'O'
I63
sS'S'
I42
sS'W'
I91
sS'['
I120
sS'_'
I127
sS'c'
I20
sS'g'
I36
sS'k'
I17
sS'o'
I1
sS's'
I7
sS'w'
I88
sS'\x81'
I102
sS'\x85'
I113
sS'\x8d'
I34
sS'\x95'
I128
sS'\x99'
I29
sS'\xa1'
I18
sS'"'
I67
sS'\xa5'
I73
sS'&'
I121
sS'\xa9'
I30
sS'\xad'
I14
sS'.'
I33
sS'\xb1'
I106
sS'2'
I51
sS'\xb5'
I103
sS'6'
I75
sS'\xb9'
I104
sS':'
I54
sS'\xbd'
I32
sS'B'
I62
sS'\xc5'
I11
sS'F'
I72
sS'J'
I53
sS'N'
I56
sS'R'
I45
sS'V'
I46
sS'Z'
I61
sS'b'
I26
sS'f'
I39
sS'j'
I24
sS'n'
I4
sS'r'
I10
sS'v'
I9
sS'z'
I23
sS'\x82'
I97
sS'\x96'
I129
sS'\x9a'
I86
sS'!'
I93
sS'%'
I83
sS')'
I43
sS'-'
I47
sS'\xae'
I130
sS'1'
I55
sS'\xb2'
I117
sS'5'
I64
sS'\xb6'
I99
sS'9'
I77
sS'\xba'
I40
sS'='
I118
sS'\xbe'
I31
sS'A'
I59
sS'\xc2'
I107
sS'E'
I37
sS'I'
I68
sS'M'
I58
sS'\xce'
I90
sS'Q'
I119
sS'U'
I49
sS'Y'
I109
sS']'
I122
sS'a'
I5
sS'e'
I3
sS'i'
I8
sS'm'
I16
sS'q'
I95
sS'u'
I19
sS'y'
I25
s.