(dp1
S'\xa3'
I99
sS'\xa7'
I84
sS'('
I56
sS','
I17
sS'0'
I35
sS'\xb3'
I85
sS'4'
I63
sS'8'
I61
sS'\xbb'
I101
sS'\xc3'
I14
sS'D'
I28
sS'H'
I38
sS'L'
I50
sS'P'
I34
sS'T'
I49
sS'X'
I88
sS'd'
I7
sS'h'
I20
sS'l'
I10
sS'p'
I19
sS't'
I4
sS'x'
I73
sS'\x98'
I69
sS'\x9c'
I97
sS'\xa0'
I102
sS'\xa4'
I90
sS"'"
I65
sS'\xa8'
I82
sS'+'
I78
sS'/'
I67
sS'3'
I62
sS'\xb4'
I103
sS'7'
I66
sS'\xb8'
I25
sS';'
I83
sS'\xbc'
I81
sS'?'
I53
sS'C'
I59
sS'G'
I60
sS'K'
I32
sS'O'
I51
sS'S'
I41
sS'W'
I74
sS'c'
I29
sS'g'
I11
sS'k'
I13
sS'o'
I9
sS's'
I6
sS'w'
I76
sS'\x85'
I94
sS'\x89'
I100
sS'\xa1'
I95
sS'"'
I57
sS'\xa5'
I22
sS'\xa9'
I64
sS'\xad'
I89
sS'.'
I24
sS'\xb1'
I104
sS'2'
I47
sS'6'
I68
sS'\xb9'
I105
sS':'
I58
sS'B'
I48
sS'F'
I37
sS'J'
I36
sS'N'
I52
sS'R'
I45
sS'V'
I39
sS'Z'
I98
sS'b'
I21
sS'f'
I15
sS'j'
I26
sS'n'
I3
sS'r'
I2
sS'v'
I16
sS'z'
I71
sS'\x86'
I79
sS'\x96'
I80
sS'!'
I70
sS'%'
I72
sS'\xa6'
I23
sS')'
I55
sS'\xaa'
I96
sS'-'
I30
sS'\xae'
I106
sS'1'
I43
sS'\xb2'
I91
sS'5'
I54
sS'\xb6'
I77
sS'9'
I40
sS'\xba'
I92
sS'='
I107
sS'A'
I46
sS'\xc2'
I86
sS'E'
I31
sS'I'
I42
sS'M'
I44
sS'Q'
I87
sS'U'
I33
sS'Y'
I93
sS'a'
I8
sS'e'
I1
sS'i'
I5
sS'm'
I12
sS'q'
I75
sS'u'
I18
sS'y'
I27
s.