(dp1
S'\xa3'
I94
sS'\xa7'
I87
sS'('
I56
sS','
I21
sS'\xaf'
I96
sS'0'
I39
sS'\xb3'
I80
sS'4'
I61
sS'8'
I59
sS'\xbb'
I100
sS'\xc3'
I67
sS'D'
I51
sS'H'
I46
sS'L'
I52
sS'P'
I29
sS'T'
I27
sS'X'
I81
sS'd'
I11
sS'h'
I9
sS'l'
I10
sS'p'
I15
sS't'
I2
sS'x'
I31
sS'\x9c'
I97
sS'\xa0'
I89
sS'\xa4'
I88
sS"'"
I40
sS'\xa8'
I85
sS'+'
I76
sS'/'
I65
sS'3'
I60
sS'\xb4'
I101
sS'7'
I62
sS'\xb8'
I91
sS';'
I64
sS'\xbc'
I79
sS'?'
I54
sS'C'
I26
sS'G'
I48
sS'K'
I66
sS'O'
I50
sS'S'
I34
sS'W'
I36
sS'['
I82
sS'c'
I12
sS'g'
I17
sS'k'
I24
sS'o'
I3
sS's'
I7
sS'w'
I18
sS'\xa1'
I98
sS'"'
I63
sS'\xa9'
I77
sS'\xad'
I83
sS'.'
I23
sS'\xb1'
I102
sS'2'
I49
sS'6'
I68
sS':'
I58
sS'B'
I45
sS'F'
I42
sS'J'
I69
sS'N'
I47
sS'R'
I44
sS'V'
I70
sS'Z'
I95
sS'b'
I20
sS'f'
I16
sS'j'
I35
sS'n'
I6
sS'r'
I8
sS'v'
I22
sS'z'
I53
sS'\x96'
I78
sS'!'
I74
sS'\xa2'
I103
sS'%'
I72
sS')'
I55
sS'\xaa'
I92
sS'-'
I32
sS'1'
I43
sS'\xb2'
I90
sS'5'
I57
sS'\xb6'
I75
sS'9'
I41
sS'\xba'
I93
sS'\xbe'
I99
sS'A'
I33
sS'\xc2'
I86
sS'E'
I28
sS'I'
I25
sS'M'
I30
sS'Q'
I73
sS'U'
I37
sS'Y'
I71
sS']'
I84
sS'a'
I5
sS'e'
I1
sS'i'
I4
sS'm'
I14
sS'q'
I38
sS'u'
I13
sS'y'
I19
s.