(dp1
S'\xa3'
I92
sS'\xa7'
I83
sS'('
I45
sS','
I20
sS'0'
I30
sS'\xb3'
I78
sS'4'
I60
sS'8'
I57
sS'\xc3'
I7
sS'D'
I64
sS'H'
I39
sS'L'
I42
sS'P'
I36
sS'T'
I27
sS'X'
I81
sS'd'
I21
sS'h'
I18
sS'l'
I9
sS'p'
I19
sS't'
I3
sS'x'
I74
sS'\x84'
I72
sS'\x9c'
I95
sS'\xa0'
I96
sS'#'
I84
sS'\xa4'
I10
sS"'"
I82
sS'\xa8'
I80
sS'+'
I73
sS'/'
I62
sS'3'
I58
sS'7'
I59
sS'\xb8'
I88
sS';'
I66
sS'\xbc'
I77
sS'?'
I52
sS'C'
I61
sS'G'
I69
sS'K'
I28
sS'O'
I35
sS'S'
I29
sS'W'
I70
sS'['
I97
sS'c'
I54
sS'g'
I26
sS'k'
I11
sS'o'
I8
sS's'
I6
sS'w'
I75
sS'\xa1'
I89
sS'"'
I56
sS'&'
I85
sS'\xa9'
I79
sS'\xad'
I86
sS'.'
I22
sS'\xb1'
I98
sS'2'
I40
sS'6'
I63
sS':'
I38
sS'B'
I50
sS'F'
I65
sS'J'
I47
sS'N'
I41
sS'R'
I53
sS'V'
I43
sS'Z'
I99
sS'b'
I44
sS'f'
I48
sS'j'
I17
sS'n'
I5
sS'r'
I15
sS'v'
I14
sS'z'
I68
sS'\x96'
I76
sS'!'
I67
sS')'
I46
sS'\xaa'
I91
sS'-'
I25
sS'1'
I34
sS'\xb2'
I93
sS'5'
I51
sS'\xb6'
I23
sS'9'
I33
sS'\xba'
I90
sS'A'
I31
sS'\xc2'
I87
sS'E'
I24
sS'I'
I37
sS'M'
I32
sS'Q'
I94
sS'U'
I49
sS'Y'
I55
sS']'
I100
sS'a'
I1
sS'e'
I4
sS'i'
I2
sS'm'
I13
sS'q'
I71
sS'u'
I12
sS'y'
I16
s.