(dp1
S'\xa7'
I65
sS'('
I63
sS'\xab'
I88
sS','
I20
sS'\xaf'
I91
sS'0'
I40
sS'\xb3'
I95
sS'4'
I70
sS'8'
I68
sS'\xbb'
I66
sS'\xc3'
I12
sS'D'
I48
sS'H'
I77
sS'L'
I35
sS'P'
I34
sS'T'
I52
sS'X'
I92
sS'd'
I11
sS'h'
I26
sS'l'
I10
sS'p'
I14
sS't'
I5
sS'x'
I27
sS'\x80'
I83
sS'\xa0'
I25
sS'\xa4'
I98
sS"'"
I18
sS'\xa8'
I29
sS'+'
I89
sS'/'
I74
sS'3'
I69
sS'\xb4'
I49
sS'7'
I71
sS'\xb8'
I104
sS';'
I81
sS'\xbc'
I96
sS'?'
I57
sS'C'
I30
sS'G'
I73
sS'K'
I82
sS'O'
I56
sS'S'
I50
sS'W'
I86
sS'['
I101
sS'c'
I13
sS'g'
I22
sS'k'
I61
sS'o'
I8
sS's'
I2
sS'w'
I87
sS'\x89'
I47
sS'\xa1'
I100
sS'"'
I55
sS'\xa9'
I16
sS'\xad'
I80
sS'.'
I23
sS'\xb1'
I105
sS'2'
I51
sS'6'
I78
sS'\xb9'
I72
sS':'
I54
sS'B'
I53
sS'F'
I59
sS'J'
I39
sS'N'
I44
sS'R'
I60
sS'V'
I64
sS'Z'
I102
sS'b'
I24
sS'f'
I21
sS'j'
I28
sS'n'
I3
sS'r'
I6
sS'v'
I17
sS'z'
I45
sS'\x82'
I106
sS'\x8a'
I107
sS'\x96'
I93
sS'!'
I85
sS'\xa2'
I75
sS'%'
I84
sS')'
I62
sS'\xaa'
I36
sS'-'
I32
sS'\xae'
I67
sS'1'
I46
sS'\xb2'
I99
sS'5'
I58
sS'\xb6'
I90
sS'9'
I43
sS'\xba'
I97
sS'A'
I42
sS'\xc2'
I79
sS'E'
I37
sS'I'
I38
sS'M'
I33
sS'Q'
I76
sS'U'
I41
sS'Y'
I94
sS']'
I103
sS'a'
I7
sS'e'
I1
sS'i'
I4
sS'm'
I15
sS'q'
I19
sS'u'
I9
sS'y'
I31
s.