(dp1
S'\x9f'
I28
sS'\xa3'
I95
sS'\xa7'
I88
sS'('
I67
sS','
I20
sS'0'
I52
sS'\xb3'
I85
sS'4'
I73
sS'8'
I71
sS'\xbb'
I97
sS'\xc3'
I16
sS'D'
I32
sS'H'
I44
sS'L'
I48
sS'P'
I34
sS'T'
I49
sS'X'
I86
sS'd'
I7
sS'h'
I9
sS'l'
I11
sS'p'
I27
sS't'
I5
sS'x'
I61
sS'\x84'
I68
sS'\x9c'
I70
sS'\xa0'
I98
sS'\xa4'
I25
sS"'"
I89
sS'\xa8'
I87
sS'+'
I83
sS'/'
I75
sS'3'
I72
sS'\xb4'
I99
sS'7'
I74
sS'\xb8'
I92
sS';'
I77
sS'\xbc'
I24
sS'?'
I63
sS'C'
I64
sS'G'
I43
sS'K'
I35
sS'O'
I58
sS'S'
I31
sS'W'
I42
sS'c'
I13
sS'g'
I12
sS'k'
I22
sS'o'
I14
sS's'
I6
sS'w'
I19
sS'\xa1'
I96
sS'"'
I62
sS'\xa9'
I84
sS'\xad'
I81
sS'.'
I23
sS'\xb1'
I100
sS'2'
I57
sS'6'
I76
sS':'
I59
sS'B'
I33
sS'F'
I39
sS'J'
I55
sS'N'
I51
sS'R'
I36
sS'V'
I40
sS'Z'
I47
sS'b'
I17
sS'f'
I18
sS'j'
I50
sS'n'
I2
sS'r'
I4
sS'v'
I26
sS'z'
I21
sS'\x96'
I69
sS'!'
I60
sS'%'
I80
sS')'
I66
sS'\xaa'
I94
sS'-'
I46
sS'1'
I54
sS'\xb2'
I91
sS'5'
I65
sS'\xb6'
I37
sS'9'
I53
sS'\xba'
I93
sS'A'
I30
sS'\xc2'
I82
sS'E'
I29
sS'I'
I38
sS'M'
I41
sS'Q'
I79
sS'U'
I45
sS'Y'
I90
sS'a'
I8
sS'e'
I1
sS'i'
I3
sS'm'
I15
sS'q'
I78
sS'u'
I10
sS'y'
I56
s.