(dp1
S'\x83'
I9
sS'\x87'
I29
sS'\x8b'
I98
sS'\x8f'
I136
sS'\x93'
I61
sS'\x97'
I46
sS'\x9b'
I104
sS'\x9f'
I50
sS'\xa3'
I40
sS'\xa7'
I97
sS'('
I70
sS'\xab'
I129
sS','
I27
sS'\xaf'
I18
sS'0'
I42
sS'\xb3'
I25
sS'4'
I80
sS'\xb7'
I12
sS'8'
I93
sS'\xbb'
I17
sS'\xbf'
I5
sS'D'
I91
sS'H'
I111
sS'L'
I75
sS'\xcf'
I2
sS'P'
I92
sS'T'
I102
sS'X'
I142
sS'd'
I72
sS'h'
I95
sS'l'
I73
sS'p'
I124
sS't'
I67
sS'x'
I132
sS'\x80'
I11
sS'\x84'
I4
sS'\x88'
I37
sS'\x8c'
I19
sS'\x90'
I137
sS'\x94'
I47
sS'\x98'
I58
sS'\x9c'
I60
sS'\xa0'
I39
sS'\xa4'
I44
sS"'"
I62
sS'\xa8'
I134
sS'+'
I126
sS'\xac'
I22
sS'/'
I89
sS'\xb0'
I140
sS'3'
I79
sS'\xb4'
I23
sS'7'
I84
sS'\xb8'
I26
sS';'
I74
sS'\xbc'
I15
sS'?'
I143
sS'C'
I88
sS'G'
I106
sS'K'
I114
sS'O'
I109
sS'S'
I90
sS'W'
I122
sS'['
I138
sS'c'
I85
sS'g'
I96
sS'k'
I110
sS'o'
I55
sS's'
I68
sS'w'
I128
sS'\x81'
I10
sS'\x85'
I13
sS'\x89'
I20
sS'\x8d'
I28
sS'\x91'
I41
sS'\x95'
I35
sS'\x99'
I81
sS'\x9d'
I86
sS'\xa1'
I121
sS'"'
I65
sS'\xa5'
I78
sS'\xa9'
I99
sS'\xad'
I21
sS'.'
I31
sS'\xb1'
I3
sS'2'
I57
sS'\xb5'
I7
sS'6'
I94
sS'\xb9'
I6
sS':'
I66
sS'\xbd'
I8
sS'B'
I83
sS'F'
I101
sS'J'
I127
sS'N'
I82
sS'R'
I63
sS'V'
I117
sS'Z'
I141
sS'b'
I118
sS'f'
I119
sS'j'
I130
sS'n'
I54
sS'r'
I49
sS'v'
I112
sS'z'
I116
sS'\x82'
I16
sS'\x86'
I32
sS'\x8a'
I43
sS'\x8e'
I30
sS'\x92'
I76
sS'\x96'
I125
sS'\x9a'
I38
sS'\x9e'
I135
sS'!'
I115
sS'%'
I113
sS'\xa6'
I107
sS')'
I64
sS'-'
I48
sS'\xae'
I24
sS'1'
I51
sS'\xb2'
I33
sS'5'
I71
sS'\xb6'
I36
sS'9'
I52
sS'\xba'
I14
sS'\xbe'
I34
sS'A'
I69
sS'\xc2'
I105
sS'E'
I59
sS'I'
I77
sS'M'
I100
sS'\xce'
I1
sS'Q'
I123
sS'U'
I108
sS'Y'
I131
sS']'
I139
sS'a'
I53
sS'e'
I45
sS'i'
I56
sS'm'
I103
sS'q'
I133
sS'u'
I87
sS'y'
I120
s.