(dp1
S'\x83'
I101
sS'\x87'
I120
sS'\x93'
I113
sS'\x9f'
I111
sS'\xa3'
I116
sS'\xa7'
I126
sS'('
I43
sS','
I22
sS'\xaf'
I109
sS'0'
I40
sS'\xb3'
I25
sS'4'
I67
sS'\xb7'
I102
sS'8'
I77
sS'\xbb'
I127
sS'\xc3'
I1
sS'D'
I61
sS'H'
I54
sS'L'
I59
sS'\xcf'
I92
sS'P'
I51
sS'T'
I46
sS'X'
I98
sS'd'
I20
sS'h'
I21
sS'l'
I5
sS'p'
I26
sS't'
I4
sS'x'
I86
sS'\x80'
I73
sS'\x84'
I94
sS'\x8c'
I128
sS'\x90'
I99
sS'\x9c'
I89
sS'\xa0'
I93
sS'\xa4'
I112
sS"'"
I103
sS'\xa8'
I95
sS'+'
I117
sS'/'
I82
sS'3'
I65
sS'\xb4'
I114
sS'7'
I66
sS'\xb8'
I121
sS';'
I76
sS'\xbc'
I32
sS'?'
I62
sS'C'
I71
sS'\xc4'
I100
sS'G'
I64
sS'K'
I52
sS'O'
I69
sS'S'
I44
sS'W'
I91
sS'['
I118
sS'_'
I129
sS'c'
I33
sS'g'
I15
sS'k'
I8
sS'o'
I10
sS's'
I6
sS'w'
I85
sS'\x81'
I80
sS'\x85'
I115
sS'\x89'
I79
sS'\x8d'
I84
sS'\x91'
I29
sS'\x99'
I104
sS'\x9d'
I74
sS'\xa1'
I14
sS'"'
I72
sS'&'
I125
sS'\xa9'
I13
sS'\xad'
I34
sS'.'
I30
sS'\xb1'
I39
sS'2'
I49
sS'\xb5'
I105
sS'6'
I68
sS'\xb9'
I106
sS':'
I47
sS'\xbd'
I110
sS'B'
I41
sS'\xc5'
I27
sS'F'
I60
sS'J'
I78
sS'N'
I53
sS'R'
I55
sS'V'
I58
sS'Z'
I90
sS'b'
I18
sS'f'
I31
sS'j'
I23
sS'n'
I7
sS'r'
I12
sS'v'
I19
sS'z'
I9
sS'\x82'
I97
sS'\x96'
I83
sS'\x9a'
I87
sS'!'
I63
sS'%'
I81
sS')'
I42
sS'-'
I37
sS'\xae'
I130
sS'1'
I50
sS'\xb2'
I122
sS'5'
I57
sS'\xb6'
I24
sS'9'
I70
sS'\xba'
I38
sS'='
I123
sS'A'
I36
sS'\xc2'
I108
sS'E'
I35
sS'I'
I56
sS'M'
I48
sS'\xce'
I88
sS'Q'
I124
sS'U'
I45
sS'Y'
I107
sS']'
I119
sS'a'
I3
sS'\xe2'
I75
sS'e'
I2
sS'i'
I11
sS'm'
I16
sS'q'
I96
sS'u'
I28
sS'y'
I17
s.