(dp1
S'\x87'
I108
sS'\x93'
I104
sS'\xa3'
I18
sS'\xa7'
I23
sS'('
I68
sS'\xab'
I93
sS','
I16
sS'0'
I46
sS'\xb3'
I37
sS'4'
I76
sS'8'
I72
sS'\xbb'
I94
sS'<'
I111
sS'\xbf'
I112
sS'\xc3'
I11
sS'D'
I50
sS'H'
I67
sS'L'
I58
sS'P'
I32
sS'T'
I44
sS'X'
I90
sS'd'
I9
sS'h'
I25
sS'l'
I15
sS'p'
I14
sS't'
I7
sS'x'
I35
sS'\x80'
I95
sS'\x88'
I113
sS'\x9c'
I109
sS'\xa0'
I41
sS'\xa4'
I99
sS"'"
I98
sS'\xa8'
I92
sS'+'
I88
sS'/'
I71
sS'3'
I74
sS'\xb4'
I85
sS'7'
I73
sS'\xb8'
I110
sS';'
I77
sS'\xbc'
I100
sS'?'
I64
sS'C'
I31
sS'G'
I54
sS'K'
I80
sS'O'
I45
sS'S'
I39
sS'W'
I86
sS'['
I96
sS'c'
I13
sS'g'
I20
sS'k'
I78
sS'o'
I3
sS's'
I4
sS'w'
I89
sS'\x81'
I83
sS'\x89'
I63
sS'\x8d'
I101
sS'\x95'
I105
sS'\xa1'
I26
sS'"'
I62
sS'\xa9'
I28
sS'\xad'
I27
sS'.'
I24
sS'\xb1'
I114
sS'2'
I57
sS'\xb5'
I36
sS'6'
I79
sS':'
I61
sS'B'
I60
sS'F'
I59
sS'J'
I70
sS'N'
I43
sS'R'
I52
sS'V'
I75
sS'Z'
I106
sS'b'
I22
sS'f'
I21
sS'j'
I34
sS'n'
I8
sS'r'
I5
sS'v'
I17
sS'z'
I30
sS'\x82'
I115
sS'\x96'
I91
sS'\x9a'
I107
sS'!'
I84
sS'\xa2'
I56
sS'%'
I81
sS')'
I66
sS'\xaa'
I40
sS'-'
I33
sS'1'
I53
sS'\xb2'
I103
sS'5'
I65
sS'\xb6'
I87
sS'9'
I49
sS'\xba'
I42
sS'A'
I38
sS'\xc2'
I55
sS'E'
I29
sS'I'
I51
sS'M'
I48
sS'Q'
I69
sS'U'
I47
sS'Y'
I102
sS']'
I97
sS'a'
I2
sS'e'
I1
sS'i'
I6
sS'm'
I10
sS'q'
I19
sS'u'
I12
sS'y'
I82
s.