(dp1
S'\xa7'
I93
sS'('
I59
sS'\xab'
I89
sS','
I16
sS'0'
I40
sS'\xb3'
I20
sS'4'
I70
sS'8'
I67
sS'\xbb'
I90
sS'\xbf'
I62
sS'\xc3'
I15
sS'D'
I45
sS'H'
I54
sS'L'
I38
sS'P'
I31
sS'T'
I44
sS'X'
I86
sS'd'
I9
sS'h'
I25
sS'l'
I8
sS'p'
I14
sS't'
I10
sS'x'
I36
sS'\xa0'
I100
sS'\xa4'
I98
sS"'"
I94
sS'\xa8'
I91
sS'+'
I82
sS'/'
I72
sS'3'
I68
sS'\xb4'
I101
sS'7'
I69
sS'\xb8'
I96
sS';'
I74
sS'\xbc'
I85
sS'?'
I60
sS'C'
I29
sS'G'
I51
sS'K'
I77
sS'O'
I64
sS'S'
I34
sS'W'
I81
sS'['
I102
sS'c'
I11
sS'g'
I19
sS'k'
I71
sS'o'
I3
sS's'
I4
sS'w'
I83
sS'\x81'
I88
sS'\x89'
I80
sS'\xa1'
I28
sS'"'
I61
sS'\xa9'
I33
sS'\xad'
I26
sS'.'
I21
sS'\xb1'
I35
sS'2'
I52
sS'6'
I75
sS':'
I57
sS'B'
I55
sS'F'
I56
sS'J'
I76
sS'N'
I47
sS'R'
I49
sS'V'
I73
sS'Z'
I99
sS'b'
I17
sS'f'
I24
sS'j'
I30
sS'n'
I5
sS'r'
I6
sS'v'
I23
sS'z'
I32
sS'\x96'
I87
sS'\x9a'
I92
sS'!'
I79
sS'%'
I78
sS')'
I58
sS'\xaa'
I97
sS'-'
I43
sS'1'
I46
sS'\xb2'
I95
sS'5'
I63
sS'\xb6'
I84
sS'9'
I42
sS'\xba'
I39
sS'A'
I37
sS'\xc2'
I53
sS'E'
I27
sS'I'
I48
sS'M'
I50
sS'Q'
I66
sS'U'
I41
sS'Y'
I65
sS']'
I103
sS'a'
I2
sS'e'
I1
sS'i'
I7
sS'm'
I13
sS'q'
I18
sS'u'
I12
sS'y'
I22
s.